target datalayout = "e-m:e-p270:32:32-p271:32:32-p272:64:64-i64:64-i128:128-f80:128-n8:16:32:64-S128"
target triple = "x86_64-pc-linux-gnu"

%struct._xmlNs = type { ptr, i32, ptr, ptr, ptr, ptr }

; Function Attrs: nounwind uwtable
define internal i64 @php_dom_node_count_list_size_xmlNs(ptr noundef %0) #0 {
  %2 = alloca ptr, align 8
  %3 = alloca i64, align 8
  store ptr %0, ptr %2, align 8
  store i64 0, ptr %3, align 8
  br label %4

4:                                                ; preds = %7, %1
  %5 = load ptr, ptr %2, align 8
  %6 = icmp ne ptr %5, null
  br i1 %6, label %7, label %13

7:                                                ; preds = %4
  %8 = load i64, ptr %3, align 8
  %9 = add i64 %8, 1
  store i64 %9, ptr %3, align 8
  %10 = load ptr, ptr %2, align 8
  %11 = getelementptr inbounds %struct._xmlNs, ptr %10, i32 0, i32 0
  %12 = load ptr, ptr %11, align 8
  store ptr %12, ptr %2, align 8
  br label %4

13:                                               ; preds = %4
  %14 = load i64, ptr %3, align 8
  ret i64 %14
}

; Function Attrs: nounwind uwtable
define internal zeroext i1 @php_dom_node_list_equality_check_unordered_xmlNs(ptr noundef %0, ptr noundef %1) #0 {
  %3 = alloca i1, align 1
  %4 = alloca ptr, align 8
  %5 = alloca ptr, align 8
  %6 = alloca i64, align 8
  %7 = alloca ptr, align 8
  %8 = alloca i8, align 1
  %9 = alloca ptr, align 8
  store ptr %0, ptr %4, align 8
  store ptr %1, ptr %5, align 8
  %10 = load ptr, ptr %4, align 8
  %11 = call i64 @php_dom_node_count_list_size_xmlNs(ptr noundef %10)
  store i64 %11, ptr %6, align 8
  %12 = load i64, ptr %6, align 8
  %13 = load ptr, ptr %5, align 8
  %14 = call i64 @php_dom_node_count_list_size_xmlNs(ptr noundef %13)
  %15 = icmp ne i64 %12, %14
  br i1 %15, label %16, label %17

16:                                               ; preds = %2
  store i1 false, ptr %3, align 1
  br label %53

17:                                               ; preds = %2
  %18 = load ptr, ptr %4, align 8
  store ptr %18, ptr %7, align 8
  br label %19

19:                                               ; preds = %48, %17
  %20 = load ptr, ptr %7, align 8
  %21 = icmp ne ptr %20, null
  br i1 %21, label %22, label %52

22:                                               ; preds = %19
  store i8 0, ptr %8, align 1
  %23 = load ptr, ptr %5, align 8
  store ptr %23, ptr %9, align 8
  br label %24

24:                                               ; preds = %39, %22
  %25 = load ptr, ptr %9, align 8
  %26 = icmp ne ptr %25, null
  br i1 %26, label %27, label %31

27:                                               ; preds = %24
  %28 = load i8, ptr %8, align 1
  %29 = trunc i8 %28 to i1
  %30 = xor i1 %29, true
  br label %31

31:                                               ; preds = %27, %24
  %32 = phi i1 [ false, %24 ], [ %30, %27 ]
  br i1 %32, label %33, label %43

33:                                               ; preds = %31
  %34 = load ptr, ptr %7, align 8
  %35 = load ptr, ptr %9, align 8
  %36 = call zeroext i1 @php_dom_node_is_equal_node(ptr noundef %34, ptr noundef %35)
  br i1 %36, label %37, label %38

37:                                               ; preds = %33
  store i8 1, ptr %8, align 1
  br label %38

38:                                               ; preds = %37, %33
  br label %39

39:                                               ; preds = %38
  %40 = load ptr, ptr %9, align 8
  %41 = getelementptr inbounds %struct._xmlNs, ptr %40, i32 0, i32 0
  %42 = load ptr, ptr %41, align 8
  store ptr %42, ptr %9, align 8
  br label %24

43:                                               ; preds = %31
  %44 = load i8, ptr %8, align 1
  %45 = trunc i8 %44 to i1
  br i1 %45, label %47, label %46

46:                                               ; preds = %43
  store i1 false, ptr %3, align 1
  br label %53

47:                                               ; preds = %43
  br label %48

48:                                               ; preds = %47
  %49 = load ptr, ptr %7, align 8
  %50 = getelementptr inbounds %struct._xmlNs, ptr %49, i32 0, i32 0
  %51 = load ptr, ptr %50, align 8
  store ptr %51, ptr %7, align 8
  br label %19

52:                                               ; preds = %19
  store i1 true, ptr %3, align 1
  br label %53

53:                                               ; preds = %52, %46, %16
  %54 = load i1, ptr %3, align 1
  ret i1 %54
}