; Function Attrs: nounwind uwtable
define internal fastcc noundef zeroext i1 @php_dom_node_list_equality_check_unordered_xmlNs(ptr noundef %0, ptr noundef %1) unnamed_addr #0 {
  %.not4.i = icmp eq ptr %0, null
  br i1 %.not4.i, label %php_dom_node_count_list_size_xmlNs.exit, label %.lr.ph.i

.lr.ph.i:                                         ; preds = %2, %.lr.ph.i
  %.06.i = phi i64 [ %3, %.lr.ph.i ], [ 0, %2 ]
  %.035.i = phi ptr [ %4, %.lr.ph.i ], [ %0, %2 ]
  %3 = add i64 %.06.i, 1
  %4 = load ptr, ptr %.035.i, align 8
  %.not.i = icmp eq ptr %4, null
  br i1 %.not.i, label %php_dom_node_count_list_size_xmlNs.exit, label %.lr.ph.i

php_dom_node_count_list_size_xmlNs.exit:          ; preds = %.lr.ph.i, %2
  %.0.lcssa.i = phi i64 [ 0, %2 ], [ %3, %.lr.ph.i ]
  %.not4.i18 = icmp eq ptr %1, null
  br i1 %.not4.i18, label %php_dom_node_count_list_size_xmlNs.exit24, label %.lr.ph.i19

.lr.ph.i19:                                       ; preds = %php_dom_node_count_list_size_xmlNs.exit, %.lr.ph.i19
  %.06.i20 = phi i64 [ %5, %.lr.ph.i19 ], [ 0, %php_dom_node_count_list_size_xmlNs.exit ]
  %.035.i21 = phi ptr [ %6, %.lr.ph.i19 ], [ %1, %php_dom_node_count_list_size_xmlNs.exit ]
  %5 = add i64 %.06.i20, 1
  %6 = load ptr, ptr %.035.i21, align 8
  %.not.i22 = icmp eq ptr %6, null
  br i1 %.not.i22, label %php_dom_node_count_list_size_xmlNs.exit24, label %.lr.ph.i19

php_dom_node_count_list_size_xmlNs.exit24:        ; preds = %.lr.ph.i19, %php_dom_node_count_list_size_xmlNs.exit
  %.0.lcssa.i23 = phi i64 [ 0, %php_dom_node_count_list_size_xmlNs.exit ], [ %5, %.lr.ph.i19 ]
  %.not = icmp ne i64 %.0.lcssa.i, %.0.lcssa.i23
  %brmerge = or i1 %.not, %.not4.i
  %not..not = xor i1 %.not, true
  %brmerge38 = or i1 %brmerge, %.not4.i18
  %.mux.mux = and i1 %.not4.i, %not..not
  br i1 %brmerge38, label %.loopexit, label %.preheader.us

.preheader.us:                                    ; preds = %php_dom_node_count_list_size_xmlNs.exit24, %7
  %.01430.us = phi ptr [ %8, %7 ], [ %0, %php_dom_node_count_list_size_xmlNs.exit24 ]
  br label %9

7:                                                ; preds = %._crit_edge.us
  %8 = load ptr, ptr %.01430.us, align 8
  %.not16.us = icmp eq ptr %8, null
  br i1 %.not16.us, label %.loopexit.loopexit, label %.preheader.us

9:                                                ; preds = %.preheader.us, %9
  %.028.us = phi ptr [ %1, %.preheader.us ], [ %11, %9 ]
  %.01327.us = phi i8 [ 0, %.preheader.us ], [ %spec.select.us, %9 ]
  %10 = tail call fastcc zeroext i1 @php_dom_node_is_equal_node(ptr noundef nonnull %.01430.us, ptr noundef nonnull %.028.us)
  %spec.select.us = select i1 %10, i8 1, i8 %.01327.us
  %11 = load ptr, ptr %.028.us, align 8
  %12 = icmp ne ptr %11, null
  %13 = and i8 %spec.select.us, 1
  %.not17.us = icmp eq i8 %13, 0
  %14 = select i1 %12, i1 %.not17.us, i1 false
  br i1 %14, label %9, label %._crit_edge.us

._crit_edge.us:                                   ; preds = %9
  br i1 %.not17.us, label %.loopexit.loopexit, label %7

.loopexit.loopexit:                               ; preds = %7, %._crit_edge.us
  %.015.ph = xor i1 %.not17.us, true
  br label %.loopexit

.loopexit:                                        ; preds = %php_dom_node_count_list_size_xmlNs.exit24, %.loopexit.loopexit
  %.015 = phi i1 [ %.mux.mux, %php_dom_node_count_list_size_xmlNs.exit24 ], [ %.015.ph, %.loopexit.loopexit ]
  ret i1 %.015
}